; Function Attrs: nounwind uwtable
define hidden i32 @SSL_get_rfd(ptr noundef readonly captures(none) %0) local_unnamed_addr #0 {
  %2 = alloca i32, align 4
  call void @llvm.lifetime.start.p0(i64 4, ptr nonnull %2) #21
  store i32 -1, ptr %2, align 4, !tbaa !161
  %3 = getelementptr inbounds nuw i8, ptr %0, i64 16
  %4 = load ptr, ptr %3, align 8, !tbaa !118
  %5 = tail call ptr @BIO_find_type(ptr noundef %4, i32 noundef 256) #21
  %.not = icmp eq ptr %5, null
  br i1 %.not, label %8, label %6

6:                                                ; preds = %1
  %7 = call i32 @BIO_get_fd(ptr noundef nonnull %5, ptr noundef nonnull %2) #21
  %.pre = load i32, ptr %2, align 4, !tbaa !161
  br label %8

8:                                                ; preds = %6, %1
  %9 = phi i32 [ %.pre, %6 ], [ -1, %1 ]
  call void @llvm.lifetime.end.p0(i64 4, ptr nonnull %2) #21
  ret i32 %9
}